target datalayout = "e-m:e-p270:32:32-p271:32:32-p272:64:64-i64:64-i128:128-f80:128-n8:16:32:64-S128"
target triple = "x86_64-pc-linux-gnu"

%struct.wpacket_st = type { ptr, ptr, i64, i64, i64, ptr, i8 }
%struct.vector_st = type { ptr, i64 }
%struct.ml_dsa_params_st = type { ptr, i32, i32, i32, i32, i32, i64, i64, i32, i32, i32, i32, i64, i64, i64 }
%struct.poly_st = type { [256 x i32] }
%struct.ml_dsa_sig_st = type { %struct.vector_st, %struct.vector_st, ptr, i64 }

; Function Attrs: nounwind uwtable
define internal i32 @hint_bits_encode(ptr noundef %0, ptr noundef %1, i32 noundef %2) #0 {
  %4 = alloca i32, align 4
  %5 = alloca ptr, align 8
  %6 = alloca ptr, align 8
  %7 = alloca i32, align 4
  %8 = alloca i32, align 4
  %9 = alloca i32, align 4
  %10 = alloca i32, align 4
  %11 = alloca i64, align 8
  %12 = alloca ptr, align 8
  %13 = alloca ptr, align 8
  %14 = alloca i32, align 4
  store ptr %0, ptr %5, align 8, !tbaa !80
  store ptr %1, ptr %6, align 8, !tbaa !29
  store i32 %2, ptr %7, align 4, !tbaa !8
  call void @llvm.lifetime.start.p0(i64 4, ptr %8) #7
  call void @llvm.lifetime.start.p0(i64 4, ptr %9) #7
  call void @llvm.lifetime.start.p0(i64 4, ptr %10) #7
  %15 = load ptr, ptr %5, align 8, !tbaa !80
  %16 = getelementptr inbounds nuw %struct.vector_st, ptr %15, i32 0, i32 1
  %17 = load i64, ptr %16, align 8, !tbaa !82
  %18 = trunc i64 %17 to i32
  store i32 %18, ptr %10, align 4, !tbaa !8
  call void @llvm.lifetime.start.p0(i64 8, ptr %11) #7
  store i64 0, ptr %11, align 8, !tbaa !10
  call void @llvm.lifetime.start.p0(i64 8, ptr %12) #7
  %19 = load ptr, ptr %5, align 8, !tbaa !80
  %20 = getelementptr inbounds nuw %struct.vector_st, ptr %19, i32 0, i32 0
  %21 = load ptr, ptr %20, align 8, !tbaa !83
  store ptr %21, ptr %12, align 8, !tbaa !20
  call void @llvm.lifetime.start.p0(i64 8, ptr %13) #7
  %22 = load ptr, ptr %6, align 8, !tbaa !29
  %23 = load i32, ptr %7, align 4, !tbaa !8
  %24 = load i32, ptr %10, align 4, !tbaa !8
  %25 = add i32 %23, %24
  %26 = zext i32 %25 to i64
  %27 = call i32 @WPACKET_allocate_bytes(ptr noundef %22, i64 noundef %26, ptr noundef %13)
  %28 = icmp ne i32 %27, 0
  br i1 %28, label %30, label %29

29:                                               ; preds = %3
  store i32 0, ptr %4, align 4
  store i32 1, ptr %14, align 4
  br label %78

30:                                               ; preds = %3
  %31 = load ptr, ptr %13, align 8, !tbaa !25
  %32 = load i32, ptr %7, align 4, !tbaa !8
  %33 = load i32, ptr %10, align 4, !tbaa !8
  %34 = add i32 %32, %33
  %35 = zext i32 %34 to i64
  call void @llvm.memset.p0.i64(ptr align 1 %31, i8 0, i64 %35, i1 false)
  store i32 0, ptr %8, align 4, !tbaa !8
  br label %36

36:                                               ; preds = %72, %30
  %37 = load i32, ptr %8, align 4, !tbaa !8
  %38 = load i32, ptr %10, align 4, !tbaa !8
  %39 = icmp slt i32 %37, %38
  br i1 %39, label %40, label %77

40:                                               ; preds = %36
  store i32 0, ptr %9, align 4, !tbaa !8
  br label %41

41:                                               ; preds = %60, %40
  %42 = load i32, ptr %9, align 4, !tbaa !8
  %43 = icmp slt i32 %42, 256
  br i1 %43, label %44, label %63

44:                                               ; preds = %41
  %45 = load ptr, ptr %12, align 8, !tbaa !20
  %46 = getelementptr inbounds nuw %struct.poly_st, ptr %45, i32 0, i32 0
  %47 = load i32, ptr %9, align 4, !tbaa !8
  %48 = sext i32 %47 to i64
  %49 = getelementptr inbounds [256 x i32], ptr %46, i64 0, i64 %48
  %50 = load i32, ptr %49, align 4, !tbaa !8
  %51 = icmp ne i32 %50, 0
  br i1 %51, label %52, label %59

52:                                               ; preds = %44
  %53 = load i32, ptr %9, align 4, !tbaa !8
  %54 = trunc i32 %53 to i8
  %55 = load ptr, ptr %13, align 8, !tbaa !25
  %56 = load i64, ptr %11, align 8, !tbaa !10
  %57 = add i64 %56, 1
  store i64 %57, ptr %11, align 8, !tbaa !10
  %58 = getelementptr inbounds nuw i8, ptr %55, i64 %56
  store i8 %54, ptr %58, align 1, !tbaa !33
  br label %59

59:                                               ; preds = %52, %44
  br label %60

60:                                               ; preds = %59
  %61 = load i32, ptr %9, align 4, !tbaa !8
  %62 = add nsw i32 %61, 1
  store i32 %62, ptr %9, align 4, !tbaa !8
  br label %41, !llvm.loop !84

63:                                               ; preds = %41
  %64 = load i64, ptr %11, align 8, !tbaa !10
  %65 = trunc i64 %64 to i8
  %66 = load ptr, ptr %13, align 8, !tbaa !25
  %67 = load i32, ptr %7, align 4, !tbaa !8
  %68 = load i32, ptr %8, align 4, !tbaa !8
  %69 = add i32 %67, %68
  %70 = zext i32 %69 to i64
  %71 = getelementptr inbounds nuw i8, ptr %66, i64 %70
  store i8 %65, ptr %71, align 1, !tbaa !33
  br label %72

72:                                               ; preds = %63
  %73 = load i32, ptr %8, align 4, !tbaa !8
  %74 = add nsw i32 %73, 1
  store i32 %74, ptr %8, align 4, !tbaa !8
  %75 = load ptr, ptr %12, align 8, !tbaa !20
  %76 = getelementptr inbounds nuw %struct.poly_st, ptr %75, i32 1
  store ptr %76, ptr %12, align 8, !tbaa !20
  br label %36, !llvm.loop !85

77:                                               ; preds = %36
  store i32 1, ptr %4, align 4
  store i32 1, ptr %14, align 4
  br label %78

78:                                               ; preds = %77, %29
  call void @llvm.lifetime.end.p0(i64 8, ptr %13) #7
  call void @llvm.lifetime.end.p0(i64 8, ptr %12) #7
  call void @llvm.lifetime.end.p0(i64 8, ptr %11) #7
  call void @llvm.lifetime.end.p0(i64 4, ptr %10) #7
  call void @llvm.lifetime.end.p0(i64 4, ptr %9) #7
  call void @llvm.lifetime.end.p0(i64 4, ptr %8) #7
  %79 = load i32, ptr %4, align 4
  ret i32 %79
}

; Function Attrs: nounwind uwtable
define i32 @ossl_ml_dsa_sig_encode(ptr noundef %0, ptr noundef %1, ptr noundef %2) #0 {
  %4 = alloca i32, align 4
  %5 = alloca ptr, align 8
  %6 = alloca ptr, align 8
  %7 = alloca ptr, align 8
  %8 = alloca i32, align 4
  %9 = alloca i64, align 8
  %10 = alloca ptr, align 8
  %11 = alloca %struct.wpacket_st, align 8
  %12 = alloca i32, align 4
  store ptr %0, ptr %5, align 8, !tbaa !67
  store ptr %1, ptr %6, align 8, !tbaa !46
  store ptr %2, ptr %7, align 8, !tbaa !25
  call void @llvm.lifetime.start.p0(i64 4, ptr %8) #7
  store i32 0, ptr %8, align 4, !tbaa !8
  call void @llvm.lifetime.start.p0(i64 8, ptr %9) #7
  call void @llvm.lifetime.start.p0(i64 8, ptr %10) #7
  call void @llvm.lifetime.start.p0(i64 56, ptr %11) #7
  %13 = load ptr, ptr %7, align 8, !tbaa !25
  %14 = icmp eq ptr %13, null
  br i1 %14, label %15, label %16

15:                                               ; preds = %3
  store i32 0, ptr %4, align 4
  store i32 1, ptr %12, align 4
  br label %76

16:                                               ; preds = %3
  %17 = load ptr, ptr %6, align 8, !tbaa !46
  %18 = getelementptr inbounds nuw %struct.ml_dsa_params_st, ptr %17, i32 0, i32 4
  %19 = load i32, ptr %18, align 4, !tbaa !69
  %20 = icmp eq i32 %19, 524288
  br i1 %20, label %21, label %22

21:                                               ; preds = %16
  store ptr @poly_encode_signed_two_to_power_19, ptr %10, align 8, !tbaa !40
  br label %23

22:                                               ; preds = %16
  store ptr @poly_encode_signed_two_to_power_17, ptr %10, align 8, !tbaa !40
  br label %23

23:                                               ; preds = %22, %21
  %24 = load ptr, ptr %7, align 8, !tbaa !25
  %25 = load ptr, ptr %6, align 8, !tbaa !46
  %26 = getelementptr inbounds nuw %struct.ml_dsa_params_st, ptr %25, i32 0, i32 14
  %27 = load i64, ptr %26, align 8, !tbaa !70
  %28 = call i32 @WPACKET_init_static_len(ptr noundef %11, ptr noundef %24, i64 noundef %27, i64 noundef 0)
  %29 = icmp ne i32 %28, 0
  br i1 %29, label %30, label %39

30:                                               ; preds = %23
  %31 = load ptr, ptr %5, align 8, !tbaa !67
  %32 = getelementptr inbounds nuw %struct.ml_dsa_sig_st, ptr %31, i32 0, i32 2
  %33 = load ptr, ptr %32, align 8, !tbaa !71
  %34 = load ptr, ptr %5, align 8, !tbaa !67
  %35 = getelementptr inbounds nuw %struct.ml_dsa_sig_st, ptr %34, i32 0, i32 3
  %36 = load i64, ptr %35, align 8, !tbaa !73
  %37 = call i32 @WPACKET_memcpy(ptr noundef %11, ptr noundef %33, i64 noundef %36)
  %38 = icmp ne i32 %37, 0
  br i1 %38, label %40, label %39

39:                                               ; preds = %30, %23
  br label %73

40:                                               ; preds = %30
  store i64 0, ptr %9, align 8, !tbaa !10
  br label %41

41:                                               ; preds = %60, %40
  %42 = load i64, ptr %9, align 8, !tbaa !10
  %43 = load ptr, ptr %5, align 8, !tbaa !67
  %44 = getelementptr inbounds nuw %struct.ml_dsa_sig_st, ptr %43, i32 0, i32 0
  %45 = getelementptr inbounds nuw %struct.vector_st, ptr %44, i32 0, i32 1
  %46 = load i64, ptr %45, align 8, !tbaa !74
  %47 = icmp ult i64 %42, %46
  br i1 %47, label %48, label %63

48:                                               ; preds = %41
  %49 = load ptr, ptr %10, align 8, !tbaa !40
  %50 = load ptr, ptr %5, align 8, !tbaa !67
  %51 = getelementptr inbounds nuw %struct.ml_dsa_sig_st, ptr %50, i32 0, i32 0
  %52 = getelementptr inbounds nuw %struct.vector_st, ptr %51, i32 0, i32 0
  %53 = load ptr, ptr %52, align 8, !tbaa !75
  %54 = load i64, ptr %9, align 8, !tbaa !10
  %55 = getelementptr inbounds nuw %struct.poly_st, ptr %53, i64 %54
  %56 = call i32 %49(ptr noundef %55, ptr noundef %11)
  %57 = icmp ne i32 %56, 0
  br i1 %57, label %59, label %58

58:                                               ; preds = %48
  br label %73

59:                                               ; preds = %48
  br label %60

60:                                               ; preds = %59
  %61 = load i64, ptr %9, align 8, !tbaa !10
  %62 = add i64 %61, 1
  store i64 %62, ptr %9, align 8, !tbaa !10
  br label %41, !llvm.loop !76

63:                                               ; preds = %41
  %64 = load ptr, ptr %5, align 8, !tbaa !67
  %65 = getelementptr inbounds nuw %struct.ml_dsa_sig_st, ptr %64, i32 0, i32 1
  %66 = load ptr, ptr %6, align 8, !tbaa !46
  %67 = getelementptr inbounds nuw %struct.ml_dsa_params_st, ptr %66, i32 0, i32 10
  %68 = load i32, ptr %67, align 8, !tbaa !77
  %69 = call i32 @hint_bits_encode(ptr noundef %65, ptr noundef %11, i32 noundef %68)
  %70 = icmp ne i32 %69, 0
  br i1 %70, label %72, label %71

71:                                               ; preds = %63
  br label %73

72:                                               ; preds = %63
  store i32 1, ptr %8, align 4, !tbaa !8
  br label %73

73:                                               ; preds = %72, %71, %58, %39
  %74 = call i32 @WPACKET_finish(ptr noundef %11)
  %75 = load i32, ptr %8, align 4, !tbaa !8
  store i32 %75, ptr %4, align 4
  store i32 1, ptr %12, align 4
  br label %76

76:                                               ; preds = %73, %15
  call void @llvm.lifetime.end.p0(i64 56, ptr %11) #7
  call void @llvm.lifetime.end.p0(i64 8, ptr %10) #7
  call void @llvm.lifetime.end.p0(i64 8, ptr %9) #7
  call void @llvm.lifetime.end.p0(i64 4, ptr %8) #7
  %77 = load i32, ptr %4, align 4
  ret i32 %77
}