; Function Attrs: nounwind uwtable
define range(i32 0, 2) i32 @ossl_ml_dsa_sig_encode(ptr noundef readonly captures(none) %0, ptr noundef readonly captures(none) %1, ptr noundef %2) local_unnamed_addr #0 {
  %4 = alloca ptr, align 8
  %5 = alloca %struct.wpacket_st, align 8
  call void @llvm.lifetime.start.p0(i64 56, ptr nonnull %5) #9
  %6 = icmp eq ptr %2, null
  br i1 %6, label %58, label %7

7:                                                ; preds = %3
  %8 = getelementptr inbounds nuw i8, ptr %1, i64 20
  %9 = load i32, ptr %8, align 4, !tbaa !58
  %10 = icmp eq i32 %9, 524288
  %poly_encode_signed_two_to_power_19.poly_encode_signed_two_to_power_17 = select i1 %10, ptr @poly_encode_signed_two_to_power_19, ptr @poly_encode_signed_two_to_power_17
  %11 = getelementptr inbounds nuw i8, ptr %1, i64 80
  %12 = load i64, ptr %11, align 8, !tbaa !59
  %13 = call i32 @WPACKET_init_static_len(ptr noundef nonnull %5, ptr noundef nonnull %2, i64 noundef %12, i64 noundef 0) #9
  %.not = icmp eq i32 %13, 0
  br i1 %.not, label %.loopexit, label %14

14:                                               ; preds = %7
  %15 = getelementptr inbounds nuw i8, ptr %0, i64 32
  %16 = load ptr, ptr %15, align 8, !tbaa !60
  %17 = getelementptr inbounds nuw i8, ptr %0, i64 40
  %18 = load i64, ptr %17, align 8, !tbaa !62
  %19 = call i32 @WPACKET_memcpy(ptr noundef nonnull %5, ptr noundef %16, i64 noundef %18) #9
  %.not19 = icmp eq i32 %19, 0
  br i1 %.not19, label %.loopexit, label %.preheader

.preheader:                                       ; preds = %14
  %20 = getelementptr inbounds nuw i8, ptr %0, i64 8
  %21 = load i64, ptr %20, align 8, !tbaa !63
  %.not26 = icmp eq i64 %21, 0
  br i1 %.not26, label %._crit_edge, label %.lr.ph

22:                                               ; preds = %.lr.ph
  %23 = add nuw i64 %.01525, 1
  %24 = load i64, ptr %20, align 8, !tbaa !63
  %25 = icmp ult i64 %23, %24
  br i1 %25, label %.lr.ph, label %._crit_edge, !llvm.loop !64

.lr.ph:                                           ; preds = %.preheader, %22
  %.01525 = phi i64 [ %23, %22 ], [ 0, %.preheader ]
  %26 = load ptr, ptr %0, align 8, !tbaa !65
  %27 = getelementptr inbounds nuw %struct.poly_st, ptr %26, i64 %.01525
  %28 = call i32 %poly_encode_signed_two_to_power_19.poly_encode_signed_two_to_power_17(ptr noundef %27, ptr noundef nonnull %5) #9, !callees !66
  %.not21 = icmp eq i32 %28, 0
  br i1 %.not21, label %.loopexit, label %22

._crit_edge:                                      ; preds = %22, %.preheader
  %29 = getelementptr inbounds nuw i8, ptr %0, i64 16
  %30 = getelementptr inbounds nuw i8, ptr %1, i64 56
  %31 = load i32, ptr %30, align 8, !tbaa !67
  %.val = load ptr, ptr %29, align 8, !tbaa !68
  %32 = getelementptr i8, ptr %0, i64 24
  %.val22 = load i64, ptr %32, align 8, !tbaa !69
  %33 = trunc i64 %.val22 to i32
  call void @llvm.lifetime.start.p0(i64 8, ptr nonnull %4) #9
  %34 = add i32 %31, %33
  %35 = zext i32 %34 to i64
  %36 = call i32 @WPACKET_allocate_bytes(ptr noundef nonnull %5, i64 noundef %35, ptr noundef nonnull %4) #9
  %.not.i = icmp eq i32 %36, 0
  br i1 %.not.i, label %.loopexit.sink.split, label %37

37:                                               ; preds = %._crit_edge
  %38 = load ptr, ptr %4, align 8, !tbaa !22
  call void @llvm.memset.p0.i64(ptr align 1 %38, i8 0, i64 %35, i1 false)
  %39 = icmp sgt i32 %33, 0
  br i1 %39, label %.preheader.preheader.i, label %.loopexit.sink.split

.preheader.preheader.i:                           ; preds = %37
  %wide.trip.count.i = and i64 %.val22, 2147483647
  br label %.preheader.i

.preheader.i:                                     ; preds = %49, %.preheader.preheader.i
  %indvars.iv7.i = phi i64 [ 0, %.preheader.preheader.i ], [ %indvars.iv.next8.i, %49 ]
  %.05.i = phi ptr [ %.val, %.preheader.preheader.i ], [ %56, %49 ]
  %.0204.i = phi i64 [ 0, %.preheader.preheader.i ], [ %.2.i, %49 ]
  br label %40

40:                                               ; preds = %48, %.preheader.i
  %indvars.iv.i = phi i64 [ 0, %.preheader.i ], [ %indvars.iv.next.i, %48 ]
  %.12.i = phi i64 [ %.0204.i, %.preheader.i ], [ %.2.i, %48 ]
  %41 = getelementptr inbounds nuw [256 x i32], ptr %.05.i, i64 0, i64 %indvars.iv.i
  %42 = load i32, ptr %41, align 4, !tbaa !21
  %.not24.i = icmp eq i32 %42, 0
  br i1 %.not24.i, label %48, label %43

43:                                               ; preds = %40
  %44 = trunc i64 %indvars.iv.i to i8
  %45 = load ptr, ptr %4, align 8, !tbaa !22
  %46 = add i64 %.12.i, 1
  %47 = getelementptr inbounds nuw i8, ptr %45, i64 %.12.i
  store i8 %44, ptr %47, align 1, !tbaa !23
  br label %48

48:                                               ; preds = %43, %40
  %.2.i = phi i64 [ %46, %43 ], [ %.12.i, %40 ]
  %indvars.iv.next.i = add nuw nsw i64 %indvars.iv.i, 1
  %exitcond.not.i = icmp eq i64 %indvars.iv.next.i, 256
  br i1 %exitcond.not.i, label %49, label %40, !llvm.loop !70

49:                                               ; preds = %48
  %50 = trunc i64 %.2.i to i8
  %51 = load ptr, ptr %4, align 8, !tbaa !22
  %52 = trunc nuw nsw i64 %indvars.iv7.i to i32
  %53 = add i32 %31, %52
  %54 = zext i32 %53 to i64
  %55 = getelementptr inbounds nuw i8, ptr %51, i64 %54
  store i8 %50, ptr %55, align 1, !tbaa !23
  %indvars.iv.next8.i = add nuw nsw i64 %indvars.iv7.i, 1
  %56 = getelementptr inbounds nuw i8, ptr %.05.i, i64 1024
  %exitcond10.not.i = icmp eq i64 %indvars.iv.next8.i, %wide.trip.count.i
  br i1 %exitcond10.not.i, label %.loopexit.sink.split, label %.preheader.i, !llvm.loop !71

.loopexit.sink.split:                             ; preds = %49, %._crit_edge, %37
  %.016.ph = phi i32 [ 1, %37 ], [ 0, %._crit_edge ], [ 1, %49 ]
  call void @llvm.lifetime.end.p0(i64 8, ptr nonnull %4) #9
  br label %.loopexit

.loopexit:                                        ; preds = %.lr.ph, %.loopexit.sink.split, %7, %14
  %.016 = phi i32 [ 0, %14 ], [ 0, %7 ], [ %.016.ph, %.loopexit.sink.split ], [ 0, %.lr.ph ]
  %57 = call i32 @WPACKET_finish(ptr noundef nonnull %5) #9
  br label %58

58:                                               ; preds = %3, %.loopexit
  %.017 = phi i32 [ %.016, %.loopexit ], [ 0, %3 ]
  call void @llvm.lifetime.end.p0(i64 56, ptr nonnull %5) #9
  ret i32 %.017
}